; Function Attrs: mustprogress norecurse uwtable
define internal fastcc noundef zeroext i1 @_ZL15TestCBBPrefixedv() unnamed_addr #0 personality ptr @__gxx_personality_v0 {
  %1 = alloca ptr, align 8
  %2 = alloca i64, align 8
  %3 = alloca %struct.cbb_st, align 8
  %4 = alloca %struct.cbb_st, align 8
  %5 = alloca %struct.cbb_st, align 8
  %6 = alloca %struct.cbb_st, align 8
  call void @llvm.lifetime.start.p0(i64 8, ptr nonnull %1) #12
  call void @llvm.lifetime.start.p0(i64 8, ptr nonnull %2) #12
  call void @llvm.lifetime.start.p0(i64 32, ptr nonnull %3) #12
  call void @llvm.lifetime.start.p0(i64 32, ptr nonnull %4) #12
  call void @llvm.lifetime.start.p0(i64 32, ptr nonnull %5) #12
  call void @llvm.lifetime.start.p0(i64 32, ptr nonnull %6) #12
  %7 = call i32 @CBB_init(ptr noundef nonnull %3, i64 noundef 0)
  %.not = icmp eq i32 %7, 0
  br i1 %.not, label %42, label %8

8:                                                ; preds = %0
  %9 = call i64 @CBB_len(ptr noundef nonnull %3)
  %.not2 = icmp eq i64 %9, 0
  br i1 %.not2, label %10, label %42

10:                                               ; preds = %8
  %11 = call i32 @CBB_add_u8_length_prefixed(ptr noundef nonnull %3, ptr noundef nonnull %4)
  %.not3 = icmp eq i32 %11, 0
  br i1 %.not3, label %42, label %12

12:                                               ; preds = %10
  %13 = call i32 @CBB_add_u8_length_prefixed(ptr noundef nonnull %3, ptr noundef nonnull %4)
  %.not4 = icmp eq i32 %13, 0
  br i1 %.not4, label %42, label %14

14:                                               ; preds = %12
  %15 = call i32 @CBB_add_u8(ptr noundef nonnull %4, i8 noundef zeroext 1)
  %.not5 = icmp eq i32 %15, 0
  br i1 %.not5, label %42, label %16

16:                                               ; preds = %14
  %17 = call i64 @CBB_len(ptr noundef nonnull %4)
  %.not6 = icmp eq i64 %17, 1
  br i1 %.not6, label %18, label %42

18:                                               ; preds = %16
  %19 = call i32 @CBB_flush(ptr noundef nonnull %3)
  %.not7 = icmp eq i32 %19, 0
  br i1 %.not7, label %42, label %20

20:                                               ; preds = %18
  %21 = call i64 @CBB_len(ptr noundef nonnull %3)
  %.not8 = icmp eq i64 %21, 3
  br i1 %.not8, label %22, label %42

22:                                               ; preds = %20
  %23 = call i32 @CBB_add_u16_length_prefixed(ptr noundef nonnull %3, ptr noundef nonnull %4)
  %.not9 = icmp eq i32 %23, 0
  br i1 %.not9, label %42, label %24

24:                                               ; preds = %22
  %25 = call i32 @CBB_add_u16(ptr noundef nonnull %4, i16 noundef zeroext 515)
  %.not10 = icmp eq i32 %25, 0
  br i1 %.not10, label %42, label %26

26:                                               ; preds = %24
  %27 = call i32 @CBB_add_u24_length_prefixed(ptr noundef nonnull %3, ptr noundef nonnull %4)
  %.not11 = icmp eq i32 %27, 0
  br i1 %.not11, label %42, label %28

28:                                               ; preds = %26
  %29 = call i32 @CBB_add_u24(ptr noundef nonnull %4, i32 noundef 263430)
  %.not12 = icmp eq i32 %29, 0
  br i1 %.not12, label %42, label %30

30:                                               ; preds = %28
  %31 = call i32 @CBB_add_u8_length_prefixed(ptr noundef nonnull %3, ptr noundef nonnull %4)
  %.not13 = icmp eq i32 %31, 0
  br i1 %.not13, label %42, label %32

32:                                               ; preds = %30
  %33 = call i32 @CBB_add_u8_length_prefixed(ptr noundef nonnull %4, ptr noundef nonnull %5)
  %.not14 = icmp eq i32 %33, 0
  br i1 %.not14, label %42, label %34

34:                                               ; preds = %32
  %35 = call i32 @CBB_add_u8(ptr noundef nonnull %5, i8 noundef zeroext 1)
  %.not15 = icmp eq i32 %35, 0
  br i1 %.not15, label %42, label %36

36:                                               ; preds = %34
  %37 = call i32 @CBB_add_u16_length_prefixed(ptr noundef nonnull %5, ptr noundef nonnull %6)
  %.not16 = icmp eq i32 %37, 0
  br i1 %.not16, label %42, label %38

38:                                               ; preds = %36
  %39 = call i32 @CBB_add_u8(ptr noundef nonnull %6, i8 noundef zeroext 2)
  %.not17 = icmp eq i32 %39, 0
  br i1 %.not17, label %42, label %40

40:                                               ; preds = %38
  %41 = call i32 @CBB_finish(ptr noundef nonnull %3, ptr noundef nonnull %1, ptr noundef nonnull %2)
  %.not18 = icmp eq i32 %41, 0
  br i1 %.not18, label %42, label %43

42:                                               ; preds = %40, %38, %36, %34, %32, %30, %28, %26, %24, %22, %20, %18, %16, %14, %12, %10, %8, %0
  call void @CBB_cleanup(ptr noundef nonnull %3)
  br label %_ZNSt10unique_ptrIh11OpenSSLFreeIhEED2Ev.exit

43:                                               ; preds = %40
  %44 = load ptr, ptr %1, align 8, !tbaa !11
  %45 = load i64, ptr %2, align 8, !tbaa !14
  %46 = icmp eq i64 %45, 19
  br i1 %46, label %.thread, label %48

.thread:                                          ; preds = %43
  %bcmp = call i32 @bcmp(ptr noundef nonnull dereferenceable(19) %44, ptr noundef nonnull dereferenceable(19) @_ZZL15TestCBBPrefixedvE9kExpected, i64 19)
  %47 = icmp eq i32 %bcmp, 0
  br label %49

48:                                               ; preds = %43
  %.not.i = icmp eq ptr %44, null
  br i1 %.not.i, label %_ZNSt10unique_ptrIh11OpenSSLFreeIhEED2Ev.exit, label %49

49:                                               ; preds = %.thread, %48
  %50 = phi i1 [ %47, %.thread ], [ false, %48 ]
  call void @free(ptr noundef nonnull %44) #12
  br label %_ZNSt10unique_ptrIh11OpenSSLFreeIhEED2Ev.exit

_ZNSt10unique_ptrIh11OpenSSLFreeIhEED2Ev.exit:    ; preds = %49, %48, %42
  %.0 = phi i1 [ false, %42 ], [ false, %48 ], [ %50, %49 ]
  call void @llvm.lifetime.end.p0(i64 32, ptr nonnull %6) #12
  call void @llvm.lifetime.end.p0(i64 32, ptr nonnull %5) #12
  call void @llvm.lifetime.end.p0(i64 32, ptr nonnull %4) #12
  call void @llvm.lifetime.end.p0(i64 32, ptr nonnull %3) #12
  call void @llvm.lifetime.end.p0(i64 8, ptr nonnull %2) #12
  call void @llvm.lifetime.end.p0(i64 8, ptr nonnull %1) #12
  ret i1 %.0
}